
main.o1.exe:     file format elf32-littlearm

Sections:
Idx Name          Size      VMA       LMA       File off  Algn
  0 .interp       00000013  00010154  00010154  00000154  2**0
                  CONTENTS, ALLOC, LOAD, READONLY, DATA
  1 .note.ABI-tag 00000020  00010168  00010168  00000168  2**2
                  CONTENTS, ALLOC, LOAD, READONLY, DATA
  2 .note.gnu.build-id 00000024  00010188  00010188  00000188  2**2
                  CONTENTS, ALLOC, LOAD, READONLY, DATA
  3 .gnu.hash     00000024  000101ac  000101ac  000001ac  2**2
                  CONTENTS, ALLOC, LOAD, READONLY, DATA
  4 .dynsym       00000040  000101d0  000101d0  000001d0  2**2
                  CONTENTS, ALLOC, LOAD, READONLY, DATA
  5 .dynstr       0000003c  00010210  00010210  00000210  2**0
                  CONTENTS, ALLOC, LOAD, READONLY, DATA
  6 .gnu.version  00000008  0001024c  0001024c  0000024c  2**1
                  CONTENTS, ALLOC, LOAD, READONLY, DATA
  7 .gnu.version_r 00000020  00010254  00010254  00000254  2**2
                  CONTENTS, ALLOC, LOAD, READONLY, DATA
  8 .rel.dyn      00000008  00010274  00010274  00000274  2**2
                  CONTENTS, ALLOC, LOAD, READONLY, DATA
  9 .rel.plt      00000018  0001027c  0001027c  0000027c  2**2
                  CONTENTS, ALLOC, LOAD, READONLY, DATA
 10 .init         0000000c  00010294  00010294  00000294  2**2
                  CONTENTS, ALLOC, LOAD, READONLY, CODE
 11 .plt          00000038  000102a0  000102a0  000002a0  2**2
                  CONTENTS, ALLOC, LOAD, READONLY, CODE
 12 .text         0000016c  000102d8  000102d8  000002d8  2**2
                  CONTENTS, ALLOC, LOAD, READONLY, CODE
 13 .fini         00000008  00010444  00010444  00000444  2**2
                  CONTENTS, ALLOC, LOAD, READONLY, CODE
 14 .rodata       00000004  0001044c  0001044c  0000044c  2**2
                  CONTENTS, ALLOC, LOAD, READONLY, DATA
 15 .ARM.exidx    00000008  00010450  00010450  00000450  2**2
                  CONTENTS, ALLOC, LOAD, READONLY, DATA
 16 .eh_frame     00000004  00010458  00010458  00000458  2**2
                  CONTENTS, ALLOC, LOAD, READONLY, DATA
 17 .init_array   00000004  00020f10  00020f10  00000f10  2**2
                  CONTENTS, ALLOC, LOAD, DATA
 18 .fini_array   00000004  00020f14  00020f14  00000f14  2**2
                  CONTENTS, ALLOC, LOAD, DATA
 19 .dynamic      000000e8  00020f18  00020f18  00000f18  2**2
                  CONTENTS, ALLOC, LOAD, DATA
 20 .got          0000001c  00021000  00021000  00001000  2**2
                  CONTENTS, ALLOC, LOAD, DATA
 21 .data         00000008  0002101c  0002101c  0000101c  2**2
                  CONTENTS, ALLOC, LOAD, DATA
 22 .bss          00000004  00021024  00021024  00001024  2**0
                  ALLOC
 23 .comment      00000030  00000000  00000000  00001024  2**0
                  CONTENTS, READONLY
 24 .ARM.attributes 0000002a  00000000  00000000  00001054  2**0
                  CONTENTS, READONLY
 25 .debug_aranges 00000020  00000000  00000000  0000107e  2**0
                  CONTENTS, READONLY, DEBUGGING
 26 .debug_info   0000037b  00000000  00000000  0000109e  2**0
                  CONTENTS, READONLY, DEBUGGING
 27 .debug_abbrev 00000140  00000000  00000000  00001419  2**0
                  CONTENTS, READONLY, DEBUGGING
 28 .debug_line   000000e7  00000000  00000000  00001559  2**0
                  CONTENTS, READONLY, DEBUGGING
 29 .debug_frame  00000030  00000000  00000000  00001640  2**2
                  CONTENTS, READONLY, DEBUGGING
 30 .debug_str    000002ca  00000000  00000000  00001670  2**0
                  CONTENTS, READONLY, DEBUGGING
 31 .debug_loc    0000004e  00000000  00000000  0000193a  2**0
                  CONTENTS, READONLY, DEBUGGING
Contents of section .interp:
 10154 2f6c6962 2f6c642d 6c696e75 782e736f  /lib/ld-linux.so
 10164 2e3300                               .3.             
Contents of section .note.ABI-tag:
 10168 04000000 10000000 01000000 474e5500  ............GNU.
 10178 00000000 03000000 02000000 00000000  ................
Contents of section .note.gnu.build-id:
 10188 04000000 14000000 03000000 474e5500  ............GNU.
 10198 8523e708 535e7ec3 9229f300 4ec2ab04  .#..S^~..)..N...
 101a8 76b83d0b                             v.=.            
Contents of section .gnu.hash:
 101ac 02000000 02000000 01000000 05000000  ................
 101bc 00480220 02000000 03000000 2f4e3df6  .H. ......../N=.
 101cc 7ded110f                             }...            
Contents of section .dynsym:
 101d0 00000000 00000000 00000000 00000000  ................
 101e0 2d000000 00000000 00000000 20000000  -........... ...
 101f0 11000000 00000000 00000000 12000000  ................
 10200 0b000000 00000000 00000000 12000000  ................
Contents of section .dynstr:
 10210 006c6962 632e736f 2e360061 626f7274  .libc.so.6.abort
 10220 005f5f6c 6962635f 73746172 745f6d61  .__libc_start_ma
 10230 696e0047 4c494243 5f322e34 005f5f67  in.GLIBC_2.4.__g
 10240 6d6f6e5f 73746172 745f5f00           mon_start__.    
Contents of section .gnu.version:
 1024c 00000000 02000200                    ........        
Contents of section .gnu.version_r:
 10254 01000100 01000000 10000000 00000000  ................
 10264 1469690d 00000200 23000000 00000000  .ii.....#.......
Contents of section .rel.dyn:
 10274 18100200 15010000                    ........        
Contents of section .rel.plt:
 1027c 0c100200 16020000 10100200 16010000  ................
 1028c 14100200 16030000                    ........        
Contents of section .init:
 10294 08402de9 1d0000eb 0880bde8           .@-.........    
Contents of section .plt:
 102a0 04e02de5 04e09fe5 0ee08fe0 08f0bee5  ..-.............
 102b0 500d0100 00c68fe2 10ca8ce2 50fdbce5  P...........P...
 102c0 00c68fe2 10ca8ce2 48fdbce5 00c68fe2  ........H.......
 102d0 10ca8ce2 40fdbce5                    ....@...        
Contents of section .text:
 102d8 00b0a0e3 00e0a0e3 04109de4 0d20a0e1  ............. ..
 102e8 04202de5 04002de5 10c09fe5 04c02de5  . -...-.......-.
 102f8 0c009fe5 0c309fe5 ebffffeb f0ffffeb  .....0..........
 10308 40040100 d8030100 e0030100 14309fe5  @............0..
 10318 14209fe5 03308fe0 022093e7 000052e3  . ...0... ....R.
 10328 1eff2f01 e3ffffea dc0c0100 18000000  ../.............
 10338 18009fe5 18309fe5 000053e1 1eff2f01  .....0....S.../.
 10348 10309fe5 000053e3 1eff2f01 13ff2fe1  .0....S.../.../.
 10358 24100200 24100200 00000000 24009fe5  $...$.......$...
 10368 24109fe5 001041e0 4111a0e1 a11f81e0  $.....A.A.......
 10378 c110b0e1 1eff2f01 10309fe5 000053e3  ....../..0....S.
 10388 1eff2f01 13ff2fe1 24100200 24100200  ../.../.$...$...
 10398 00000000 10402de9 18409fe5 0030d4e5  .....@-..@...0..
 103a8 000053e3 1080bd18 e0ffffeb 0130a0e3  ..S..........0..
 103b8 0030c4e5 1080bde8 24100200 e6ffffea  .0......$.......
 103c8 000050e3 0000a0d3 0100a0c3 1eff2fe1  ..P.........../.
 103d8 0000a0e3 1eff2fe1 f0472de9 4c609fe5  ....../..G-.L`..
 103e8 4c509fe5 06608fe0 05508fe0 056046e0  LP...`...P...`F.
 103f8 0070a0e1 0180a0e1 0290a0e1 a2ffffeb  .p..............
 10408 4661b0e1 f087bd08 0040a0e3 014084e2  Fa.......@...@..
 10418 043095e4 0920a0e1 0810a0e1 0700a0e1  .0... ..........
 10428 33ff2fe1 040056e1 f7ffff1a f087bde8  3./...V.........
 10438 200b0100 180b0100 1eff2fe1            ........./.    
Contents of section .fini:
 10444 08402de9 0880bde8                    .@-.....        
Contents of section .rodata:
 1044c 01000200                             ....            
Contents of section .ARM.exidx:
 10450 88feff7f 01000000                    ........        
Contents of section .eh_frame:
 10458 00000000                             ....            
Contents of section .init_array:
 20f10 c4030100                             ....            
Contents of section .fini_array:
 20f14 9c030100                             ....            
Contents of section .dynamic:
 20f18 01000000 01000000 0c000000 94020100  ................
 20f28 0d000000 44040100 19000000 100f0200  ....D...........
 20f38 1b000000 04000000 1a000000 140f0200  ................
 20f48 1c000000 04000000 f5feff6f ac010100  ...........o....
 20f58 05000000 10020100 06000000 d0010100  ................
 20f68 0a000000 3c000000 0b000000 10000000  ....<...........
 20f78 15000000 00000000 03000000 00100200  ................
 20f88 02000000 18000000 14000000 11000000  ................
 20f98 17000000 7c020100 11000000 74020100  ....|.......t...
 20fa8 12000000 08000000 13000000 08000000  ................
 20fb8 feffff6f 54020100 ffffff6f 01000000  ...oT......o....
 20fc8 f0ffff6f 4c020100 00000000 00000000  ...oL...........
 20fd8 00000000 00000000 00000000 00000000  ................
 20fe8 00000000 00000000 00000000 00000000  ................
 20ff8 00000000 00000000                    ........        
Contents of section .got:
 21000 180f0200 00000000 00000000 a0020100  ................
 21010 a0020100 a0020100 00000000           ............    
Contents of section .data:
 2101c 00000000 00000000                    ........        
Contents of section .comment:
 0000 4743433a 20285562 756e7475 2f4c696e  GCC: (Ubuntu/Lin
 0010 61726f20 372e352e 302d3375 62756e74  aro 7.5.0-3ubunt
 0020 75317e31 382e3034 2920372e 352e3000  u1~18.04) 7.5.0.
Contents of section .ARM.attributes:
 0000 41290000 00616561 62690001 1f000000  A)...aeabi......
 0010 05355400 06030801 09011204 13011401  .5T.............
 0020 15011703 18011901 1a02               ..........      
Contents of section .debug_aranges:
 0000 1c000000 02000000 00000400 00000000  ................
 0010 c8030100 18000000 00000000 00000000  ................
Contents of section .debug_info:
 0000 77030000 04000000 00000401 31010000  w...........1...
 0010 0c110200 00a20000 00c80301 00180000  ................
 0020 00000000 00024800 000002d8 30000000  ......H.....0...
 0030 03040724 01000003 0108fd00 00000302  ...$............
 0040 07d00100 00030407 1f010000 030106ff  ................
 0050 00000003 02053e00 00000404 05696e74  ......>......int
 0060 00030805 94000000 0308071a 01000002  ................
 0070 0c000000 03376100 00000230 02000003  .....7a....0....
 0080 8c850000 00030405 99000000 02260200  .............&..
 0090 00038d6f 00000005 0406049f 00000003  ...o............
 00a0 01080601 0000079f 00000008 f4000000  ................
 00b0 9804f52b 02000009 5d000000 04f65a00  ...+....].....Z.
 00c0 00000009 c3010000 04fb9900 00000409  ................
 00d0 80000000 04fc9900 00000809 63020000  ............c...
 00e0 04fd9900 00000c09 ab010000 04fe9900  ................
 00f0 00001009 4f000000 04ff9900 0000140a  ....O...........
 0100 18020000 04000199 00000018 0a640000  .............d..
 0110 00040101 99000000 1c0a0000 00000402  ................
 0120 01990000 00200a86 02000004 04019900  ..... ..........
 0130 0000240a 3f020000 04050199 00000028  ..$.?..........(
 0140 0a310000 00040601 99000000 2c0a7700  .1..........,.w.
 0150 00000408 01630200 00300a38 02000004  .....c...0.8....
 0160 0a016902 0000340a a0020000 040c015a  ..i...4........Z
 0170 00000038 0a550200 00041001 5a000000  ...8.U......Z...
 0180 3c0a1c00 00000412 017a0000 00400abf  <........z...@..
 0190 00000004 16013e00 0000440a 77020000  ......>...D.w...
 01a0 0417014c 00000046 0aa10100 00041801  ...L...F........
 01b0 6f020000 470a7100 0000041c 017f0200  o...G.q.........
 01c0 00480a20 00000004 25018c00 0000500a  .H. ....%.....P.
 01d0 ee010000 042d0197 00000058 0af50100  .....-.....X....
 01e0 00042e01 97000000 5c0afc01 0000042f  ........\....../
 01f0 01970000 00600a03 02000004 30019700  .....`......0...
 0200 0000640a 0a020000 04320125 00000068  ..d......2.%...h
 0210 0a5d0200 00043301 5a000000 6c0aba01  .]....3.Z...l...
 0220 00000435 01850200 0070000b bf020000  ...5.....p......
 0230 049a0896 0100000c 04a06302 000009e8  ..........c.....
 0240 01000004 a1630200 000009ee 00000004  .....c..........
 0250 a2690200 000409e9 00000004 a65a0000  .i...........Z..
 0260 00080006 04320200 000604ab 0000000c  .....2..........
 0270 9f000000 7f020000 0d300000 00000006  .........0......
 0280 042b0200 000c9f00 00009502 00000d30  .+.............0
 0290 00000027 000edb00 00000f0b 01000004  ...'............
 02a0 3f019502 00000faf 02000004 40019502  ?...........@...
 02b0 00000fcb 00000004 41019502 00000604  ........A.......
 02c0 a6000000 07be0200 00104f02 00000587  ..........O.....
 02d0 69020000 10a80200 00058869 02000010  i..........i....
 02e0 8d000000 05896902 00001028 00000006  ......i....(....
 02f0 1a5a0000 000cc402 00000003 00001100  .Z..............
 0300 07f50200 00109402 0000061b 00030000  ................
 0310 12e30100 00010d5a 000000d8 03010008  .......Z........
 0320 00000001 9c350300 00131500 0000010e  .....5..........
 0330 5a000000 00147102 00000103 5a000000  Z.....q.....Z...
 0340 01580300 00157800 01035a00 00001679  .X....x...Z....y
 0350 0001045a 00000000 17350300 00c80301  ...Z.....5......
 0360 00100000 00019c18 45030000 00000000  ........E.......
 0370 194e0300 00210000 000000             .N...!.....     
Contents of section .debug_abbrev:
 0000 01110125 0e130b03 0e1b0e11 01120610  ...%............
 0010 17000002 1600030e 3a0b3b0b 49130000  ........:.;.I...
 0020 0324000b 0b3e0b03 0e000004 24000b0b  .$...>......$...
 0030 3e0b0308 0000050f 000b0b00 00060f00  >...............
 0040 0b0b4913 00000726 00491300 00081301  ..I....&.I......
 0050 030e0b0b 3a0b3b0b 01130000 090d0003  ....:.;.........
 0060 0e3a0b3b 0b491338 0b00000a 0d00030e  .:.;.I.8........
 0070 3a0b3b05 4913380b 00000b16 00030e3a  :.;.I.8........:
 0080 0b3b0b00 000c0101 49130113 00000d21  .;......I......!
 0090 0049132f 0b00000e 1300030e 3c190000  .I./........<...
 00a0 0f340003 0e3a0b3b 0549133f 193c1900  .4...:.;.I.?.<..
 00b0 00103400 030e3a0b 3b0b4913 3f193c19  ..4...:.;.I.?.<.
 00c0 00001121 00000012 2e013f19 030e3a0b  ...!......?...:.
 00d0 3b0b4913 11011206 40189742 19011300  ;.I.....@..B....
 00e0 00133400 030e3a0b 3b0b4913 0000142e  ..4...:.;.I.....
 00f0 013f1903 0e3a0b3b 0b271949 13200b01  .?...:.;.'.I. ..
 0100 13000015 05000308 3a0b3b0b 49130000  ........:.;.I...
 0110 16340003 083a0b3b 0b491300 00172e01  .4...:.;.I......
 0120 31131101 12064018 97421900 00180500  1.....@..B......
 0130 31130217 00001934 00311302 17000000  1......4.1......
Contents of section .debug_line:
 0000 e3000000 0200cd00 00000201 fb0e0d00  ................
 0010 01010101 00000001 0000012f 7573722f  .........../usr/
 0020 6c69622f 6763632d 63726f73 732f6172  lib/gcc-cross/ar
 0030 6d2d6c69 6e75782d 676e7565 6162692f  m-linux-gnueabi/
 0040 372f696e 636c7564 65002f75 73722f61  7/include./usr/a
 0050 726d2d6c 696e7578 2d676e75 65616269  rm-linux-gnueabi
 0060 2f696e63 6c756465 2f626974 73002f75  /include/bits./u
 0070 73722f61 726d2d6c 696e7578 2d676e75  sr/arm-linux-gnu
 0080 65616269 2f696e63 6c756465 00006d61  eabi/include..ma
 0090 696e2e63 00000000 73746464 65662e68  in.c....stddef.h
 00a0 00010000 74797065 732e6800 0200006c  ....types.h....l
 00b0 6962696f 2e680002 00007374 64696f2e  ibio.h....stdio.
 00c0 68000300 00737973 5f657272 6c697374  h....sys_errlist
 00d0 2e680002 00000000 0502c803 0100141a  .h..............
 00e0 84160204 000101                      .......         
Contents of section .debug_frame:
 0000 0c000000 ffffffff 0100027c 0e0c0d00  ...........|....
 0010 0c000000 00000000 c8030100 10000000  ................
 0020 0c000000 00000000 d8030100 08000000  ................
Contents of section .debug_str:
 0000 5f494f5f 6275665f 656e6400 5f5f7175  _IO_buf_end.__qu
 0010 61645f74 00726573 756c7400 5f6f6c64  ad_t.result._old
 0020 5f6f6666 73657400 7379735f 6e657272  _offset.sys_nerr
 0030 005f494f 5f736176 655f656e 64007368  ._IO_save_end.sh
 0040 6f727420 696e7400 73697a65 5f74005f  ort int.size_t._
 0050 494f5f77 72697465 5f707472 005f666c  IO_write_ptr._fl
 0060 61677300 5f494f5f 6275665f 62617365  ags._IO_buf_base
 0070 005f6c6f 636b005f 6d61726b 65727300  ._lock._markers.
 0080 5f494f5f 72656164 5f656e64 00737464  _IO_read_end.std
 0090 65727200 6c6f6e67 206c6f6e 6720696e  err.long long in
 00a0 74002f65 78746572 6e616c2f 73637261  t./external/scra
 00b0 7463682f 6175746f 67656e2f 3036005f  tch/autogen/06._
 00c0 6375725f 636f6c75 6d6e005f 494f5f32  cur_column._IO_2
 00d0 5f315f73 74646572 725f005f 494f5f46  _1_stderr_._IO_F
 00e0 494c455f 706c7573 005f706f 73005f73  ILE_plus._pos._s
 00f0 62756600 5f494f5f 46494c45 00756e73  buf._IO_FILE.uns
 0100 69676e65 64206368 6172005f 494f5f32  igned char._IO_2
 0110 5f315f73 7464696e 5f006c6f 6e67206c  _1_stdin_.long l
 0120 6f6e6720 756e7369 676e6564 20696e74  ong unsigned int
 0130 00474e55 20433131 20372e35 2e30202d  .GNU C11 7.5.0 -
 0140 6d61726d 202d6d61 7263683d 61726d76  marm -march=armv
 0150 3574202d 6d666c6f 61742d61 62693d73  5t -mfloat-abi=s
 0160 6f667420 2d6d746c 732d6469 616c6563  oft -mtls-dialec
 0170 743d676e 75202d67 202d4f31 202d6673  t=gnu -g -O1 -fs
 0180 7461636b 2d70726f 74656374 6f722d73  tack-protector-s
 0190 74726f6e 67005f49 4f5f6d61 726b6572  trong._IO_marker
 01a0 005f7368 6f727462 7566005f 494f5f77  ._shortbuf._IO_w
 01b0 72697465 5f626173 65005f75 6e757365  rite_base._unuse
 01c0 6432005f 494f5f72 6561645f 70747200  d2._IO_read_ptr.
 01d0 73686f72 7420756e 7369676e 65642069  short unsigned i
 01e0 6e74006d 61696e00 5f6e6578 74005f5f  nt.main._next.__
 01f0 70616431 005f5f70 61643200 5f5f7061  pad1.__pad2.__pa
 0200 6433005f 5f706164 34005f5f 70616435  d3.__pad4.__pad5
 0210 006d6169 6e2e6300 5f494f5f 77726974  .main.c._IO_writ
 0220 655f656e 64005f5f 6f666636 345f7400  e_end.__off64_t.
 0230 5f5f6f66 665f7400 5f636861 696e005f  __off_t._chain._
 0240 494f5f62 61636b75 705f6261 73650073  IO_backup_base.s
 0250 7464696e 005f666c 61677332 005f6d6f  tdin._flags2._mo
 0260 6465005f 494f5f72 6561645f 62617365  de._IO_read_base
 0270 00636865 636b005f 76746162 6c655f6f  .check._vtable_o
 0280 66667365 74005f49 4f5f7361 76655f62  ffset._IO_save_b
 0290 61736500 7379735f 6572726c 69737400  ase.sys_errlist.
 02a0 5f66696c 656e6f00 7374646f 7574005f  _fileno.stdout._
 02b0 494f5f32 5f315f73 74646f75 745f005f  IO_2_1_stdout_._
 02c0 494f5f6c 6f636b5f 7400               IO_lock_t.      
Contents of section .debug_loc:
 0000 00000000 08000000 01005008 00000010  ..........P.....
 0010 00000004 00f30150 9f000000 00000000  .......P........
 0020 00000000 00080000 00080070 00302b08  ...........p.0+.
 0030 ff1a9f08 00000010 00000009 00f30150  ...............P
 0040 302b08ff 1a9f0000 00000000 0000      0+............  

Disassembly of section .init:

00010294 <_init>:
   10294:	e92d4008 	push	{r3, lr}
   10298:	eb00001d 	bl	10314 <call_weak_fn>
   1029c:	e8bd8008 	pop	{r3, pc}

Disassembly of section .plt:

000102a0 <.plt>:
   102a0:	e52de004 	push	{lr}		; (str lr, [sp, #-4]!)
   102a4:	e59fe004 	ldr	lr, [pc, #4]	; 102b0 <.plt+0x10>
   102a8:	e08fe00e 	add	lr, pc, lr
   102ac:	e5bef008 	ldr	pc, [lr, #8]!
   102b0:	00010d50 	andeq	r0, r1, r0, asr sp

000102b4 <__libc_start_main@plt>:
   102b4:	e28fc600 	add	ip, pc, #0, 12
   102b8:	e28cca10 	add	ip, ip, #16, 20	; 0x10000
   102bc:	e5bcfd50 	ldr	pc, [ip, #3408]!	; 0xd50

000102c0 <__gmon_start__@plt>:
   102c0:	e28fc600 	add	ip, pc, #0, 12
   102c4:	e28cca10 	add	ip, ip, #16, 20	; 0x10000
   102c8:	e5bcfd48 	ldr	pc, [ip, #3400]!	; 0xd48

000102cc <abort@plt>:
   102cc:	e28fc600 	add	ip, pc, #0, 12
   102d0:	e28cca10 	add	ip, ip, #16, 20	; 0x10000
   102d4:	e5bcfd40 	ldr	pc, [ip, #3392]!	; 0xd40

Disassembly of section .text:

000102d8 <_start>:
   102d8:	e3a0b000 	mov	fp, #0
   102dc:	e3a0e000 	mov	lr, #0
   102e0:	e49d1004 	pop	{r1}		; (ldr r1, [sp], #4)
   102e4:	e1a0200d 	mov	r2, sp
   102e8:	e52d2004 	push	{r2}		; (str r2, [sp, #-4]!)
   102ec:	e52d0004 	push	{r0}		; (str r0, [sp, #-4]!)
   102f0:	e59fc010 	ldr	ip, [pc, #16]	; 10308 <_start+0x30>
   102f4:	e52dc004 	push	{ip}		; (str ip, [sp, #-4]!)
   102f8:	e59f000c 	ldr	r0, [pc, #12]	; 1030c <_start+0x34>
   102fc:	e59f300c 	ldr	r3, [pc, #12]	; 10310 <_start+0x38>
   10300:	ebffffeb 	bl	102b4 <__libc_start_main@plt>
   10304:	ebfffff0 	bl	102cc <abort@plt>
   10308:	00010440 	andeq	r0, r1, r0, asr #8
   1030c:	000103d8 	ldrdeq	r0, [r1], -r8
   10310:	000103e0 	andeq	r0, r1, r0, ror #7

00010314 <call_weak_fn>:
   10314:	e59f3014 	ldr	r3, [pc, #20]	; 10330 <call_weak_fn+0x1c>
   10318:	e59f2014 	ldr	r2, [pc, #20]	; 10334 <call_weak_fn+0x20>
   1031c:	e08f3003 	add	r3, pc, r3
   10320:	e7932002 	ldr	r2, [r3, r2]
   10324:	e3520000 	cmp	r2, #0
   10328:	012fff1e 	bxeq	lr
   1032c:	eaffffe3 	b	102c0 <__gmon_start__@plt>
   10330:	00010cdc 	ldrdeq	r0, [r1], -ip
   10334:	00000018 	andeq	r0, r0, r8, lsl r0

00010338 <deregister_tm_clones>:
   10338:	e59f0018 	ldr	r0, [pc, #24]	; 10358 <deregister_tm_clones+0x20>
   1033c:	e59f3018 	ldr	r3, [pc, #24]	; 1035c <deregister_tm_clones+0x24>
   10340:	e1530000 	cmp	r3, r0
   10344:	012fff1e 	bxeq	lr
   10348:	e59f3010 	ldr	r3, [pc, #16]	; 10360 <deregister_tm_clones+0x28>
   1034c:	e3530000 	cmp	r3, #0
   10350:	012fff1e 	bxeq	lr
   10354:	e12fff13 	bx	r3
   10358:	00021024 	andeq	r1, r2, r4, lsr #32
   1035c:	00021024 	andeq	r1, r2, r4, lsr #32
   10360:	00000000 	andeq	r0, r0, r0

00010364 <register_tm_clones>:
   10364:	e59f0024 	ldr	r0, [pc, #36]	; 10390 <register_tm_clones+0x2c>
   10368:	e59f1024 	ldr	r1, [pc, #36]	; 10394 <register_tm_clones+0x30>
   1036c:	e0411000 	sub	r1, r1, r0
   10370:	e1a01141 	asr	r1, r1, #2
   10374:	e0811fa1 	add	r1, r1, r1, lsr #31
   10378:	e1b010c1 	asrs	r1, r1, #1
   1037c:	012fff1e 	bxeq	lr
   10380:	e59f3010 	ldr	r3, [pc, #16]	; 10398 <register_tm_clones+0x34>
   10384:	e3530000 	cmp	r3, #0
   10388:	012fff1e 	bxeq	lr
   1038c:	e12fff13 	bx	r3
   10390:	00021024 	andeq	r1, r2, r4, lsr #32
   10394:	00021024 	andeq	r1, r2, r4, lsr #32
   10398:	00000000 	andeq	r0, r0, r0

0001039c <__do_global_dtors_aux>:
   1039c:	e92d4010 	push	{r4, lr}
   103a0:	e59f4018 	ldr	r4, [pc, #24]	; 103c0 <__do_global_dtors_aux+0x24>
   103a4:	e5d43000 	ldrb	r3, [r4]
   103a8:	e3530000 	cmp	r3, #0
   103ac:	18bd8010 	popne	{r4, pc}
   103b0:	ebffffe0 	bl	10338 <deregister_tm_clones>
   103b4:	e3a03001 	mov	r3, #1
   103b8:	e5c43000 	strb	r3, [r4]
   103bc:	e8bd8010 	pop	{r4, pc}
   103c0:	00021024 	andeq	r1, r2, r4, lsr #32

000103c4 <frame_dummy>:
   103c4:	eaffffe6 	b	10364 <register_tm_clones>

000103c8 <check>:
    y = 1;
  } else {
    y = 0;
  } 
  return y;
}
   103c8:	e3500000 	cmp	r0, #0
   103cc:	d3a00000 	movle	r0, #0
   103d0:	c3a00001 	movgt	r0, #1
   103d4:	e12fff1e 	bx	lr

000103d8 <main>:

int main() {
  int result;
  result = check(2147483648);
  return result;
}
   103d8:	e3a00000 	mov	r0, #0
   103dc:	e12fff1e 	bx	lr

000103e0 <__libc_csu_init>:
   103e0:	e92d47f0 	push	{r4, r5, r6, r7, r8, r9, sl, lr}
   103e4:	e59f604c 	ldr	r6, [pc, #76]	; 10438 <__libc_csu_init+0x58>
   103e8:	e59f504c 	ldr	r5, [pc, #76]	; 1043c <__libc_csu_init+0x5c>
   103ec:	e08f6006 	add	r6, pc, r6
   103f0:	e08f5005 	add	r5, pc, r5
   103f4:	e0466005 	sub	r6, r6, r5
   103f8:	e1a07000 	mov	r7, r0
   103fc:	e1a08001 	mov	r8, r1
   10400:	e1a09002 	mov	r9, r2
   10404:	ebffffa2 	bl	10294 <_init>
   10408:	e1b06146 	asrs	r6, r6, #2
   1040c:	08bd87f0 	popeq	{r4, r5, r6, r7, r8, r9, sl, pc}
   10410:	e3a04000 	mov	r4, #0
   10414:	e2844001 	add	r4, r4, #1
   10418:	e4953004 	ldr	r3, [r5], #4
   1041c:	e1a02009 	mov	r2, r9
   10420:	e1a01008 	mov	r1, r8
   10424:	e1a00007 	mov	r0, r7
   10428:	e12fff33 	blx	r3
   1042c:	e1560004 	cmp	r6, r4
   10430:	1afffff7 	bne	10414 <__libc_csu_init+0x34>
   10434:	e8bd87f0 	pop	{r4, r5, r6, r7, r8, r9, sl, pc}
   10438:	00010b20 	andeq	r0, r1, r0, lsr #22
   1043c:	00010b18 	andeq	r0, r1, r8, lsl fp

00010440 <__libc_csu_fini>:
   10440:	e12fff1e 	bx	lr

Disassembly of section .fini:

00010444 <_fini>:
   10444:	e92d4008 	push	{r3, lr}
   10448:	e8bd8008 	pop	{r3, pc}
